target datalayout = "e-m:e-p270:32:32-p271:32:32-p272:64:64-i64:64-i128:128-f80:128-n8:16:32:64-S128"
target triple = "x86_64-unknown-linux-gnu"

; Function Attrs: nounwind sspstrong uwtable
define dso_local i32 @qemu_fdt_setprop_string_array(ptr noundef %fdt, ptr noundef %node_path, ptr noundef %prop, ptr noundef %array, i32 noundef %len) #0 {
entry:
  %fdt.addr = alloca ptr, align 8
  %node_path.addr = alloca ptr, align 8
  %prop.addr = alloca ptr, align 8
  %array.addr = alloca ptr, align 8
  %len.addr = alloca i32, align 4
  %ret = alloca i32, align 4
  %i = alloca i32, align 4
  %total_len = alloca i32, align 4
  %str = alloca ptr, align 8
  %p = alloca ptr, align 8
  %offset = alloca i32, align 4
  store ptr %fdt, ptr %fdt.addr, align 8
  store ptr %node_path, ptr %node_path.addr, align 8
  store ptr %prop, ptr %prop.addr, align 8
  store ptr %array, ptr %array.addr, align 8
  store i32 %len, ptr %len.addr, align 4
  store i32 0, ptr %total_len, align 4
  store i32 0, ptr %i, align 4
  br label %for.cond

for.cond:                                         ; preds = %for.inc, %entry
  %0 = load i32, ptr %i, align 4
  %1 = load i32, ptr %len.addr, align 4
  %cmp = icmp slt i32 %0, %1
  br i1 %cmp, label %for.body, label %for.end

for.body:                                         ; preds = %for.cond
  %2 = load ptr, ptr %array.addr, align 8
  %3 = load i32, ptr %i, align 4
  %idxprom = sext i32 %3 to i64
  %arrayidx = getelementptr ptr, ptr %2, i64 %idxprom
  %4 = load ptr, ptr %arrayidx, align 8
  %call = call i64 @strlen(ptr noundef %4) #11
  %add = add i64 %call, 1
  %5 = load i32, ptr %total_len, align 4
  %conv = sext i32 %5 to i64
  %add1 = add i64 %conv, %add
  %conv2 = trunc i64 %add1 to i32
  store i32 %conv2, ptr %total_len, align 4
  br label %for.inc

for.inc:                                          ; preds = %for.body
  %6 = load i32, ptr %i, align 4
  %inc = add i32 %6, 1
  store i32 %inc, ptr %i, align 4
  br label %for.cond, !llvm.loop !15

for.end:                                          ; preds = %for.cond
  %7 = load i32, ptr %total_len, align 4
  %conv3 = sext i32 %7 to i64
  %call4 = call noalias ptr @g_malloc0(i64 noundef %conv3) #9
  store ptr %call4, ptr %str, align 8
  store ptr %call4, ptr %p, align 8
  store i32 0, ptr %i, align 4
  br label %for.cond5

for.cond5:                                        ; preds = %for.inc16, %for.end
  %8 = load i32, ptr %i, align 4
  %9 = load i32, ptr %len.addr, align 4
  %cmp6 = icmp slt i32 %8, %9
  br i1 %cmp6, label %for.body8, label %for.end18

for.body8:                                        ; preds = %for.cond5
  %10 = load ptr, ptr %array.addr, align 8
  %11 = load i32, ptr %i, align 4
  %idxprom9 = sext i32 %11 to i64
  %arrayidx10 = getelementptr ptr, ptr %10, i64 %idxprom9
  %12 = load ptr, ptr %arrayidx10, align 8
  %call11 = call i64 @strlen(ptr noundef %12) #11
  %add12 = add i64 %call11, 1
  %conv13 = trunc i64 %add12 to i32
  store i32 %conv13, ptr %offset, align 4
  %13 = load ptr, ptr %p, align 8
  %14 = load i32, ptr %offset, align 4
  %15 = load ptr, ptr %array.addr, align 8
  %16 = load i32, ptr %i, align 4
  %idxprom14 = sext i32 %16 to i64
  %arrayidx15 = getelementptr ptr, ptr %15, i64 %idxprom14
  %17 = load ptr, ptr %arrayidx15, align 8
  call void @pstrcpy(ptr noundef %13, i32 noundef %14, ptr noundef %17)
  %18 = load i32, ptr %offset, align 4
  %19 = load ptr, ptr %p, align 8
  %idx.ext = sext i32 %18 to i64
  %add.ptr = getelementptr i8, ptr %19, i64 %idx.ext
  store ptr %add.ptr, ptr %p, align 8
  br label %for.inc16

for.inc16:                                        ; preds = %for.body8
  %20 = load i32, ptr %i, align 4
  %inc17 = add i32 %20, 1
  store i32 %inc17, ptr %i, align 4
  br label %for.cond5, !llvm.loop !16

for.end18:                                        ; preds = %for.cond5
  %21 = load ptr, ptr %fdt.addr, align 8
  %22 = load ptr, ptr %node_path.addr, align 8
  %23 = load ptr, ptr %prop.addr, align 8
  %24 = load ptr, ptr %str, align 8
  %25 = load i32, ptr %total_len, align 4
  %call19 = call i32 @qemu_fdt_setprop(ptr noundef %21, ptr noundef %22, ptr noundef %23, ptr noundef %24, i32 noundef %25)
  store i32 %call19, ptr %ret, align 4
  %26 = load ptr, ptr %str, align 8
  call void @g_free(ptr noundef %26)
  %27 = load i32, ptr %ret, align 4
  ret i32 %27
}