; Function Attrs: nounwind sspstrong uwtable
define dso_local range(i32 0, -2147483648) i32 @qemu_fdt_setprop_string_array(ptr noundef %fdt, ptr noundef %node_path, ptr noundef %prop, ptr noundef readonly captures(none) %array, i32 noundef %len) local_unnamed_addr #0 {
entry:
  %cmp15 = icmp sgt i32 %len, 0
  br i1 %cmp15, label %for.body.preheader, label %for.end.thread

for.end.thread:                                   ; preds = %entry
  %call429 = tail call noalias ptr @g_malloc0(i64 noundef 0) #11
  br label %for.end18

for.body.preheader:                               ; preds = %entry
  %wide.trip.count = zext nneg i32 %len to i64
  br label %for.body

for.body:                                         ; preds = %for.body.preheader, %for.body
  %indvars.iv = phi i64 [ 0, %for.body.preheader ], [ %indvars.iv.next, %for.body ]
  %total_len.016 = phi i32 [ 0, %for.body.preheader ], [ %conv2, %for.body ]
  %arrayidx = getelementptr ptr, ptr %array, i64 %indvars.iv
  %0 = load ptr, ptr %arrayidx, align 8
  %call = tail call i64 @strlen(ptr noundef nonnull dereferenceable(1) %0) #14
  %1 = trunc i64 %call to i32
  %2 = add i32 %total_len.016, 1
  %conv2 = add i32 %2, %1
  %indvars.iv.next = add nuw nsw i64 %indvars.iv, 1
  %exitcond.not = icmp eq i64 %indvars.iv.next, %wide.trip.count
  br i1 %exitcond.not, label %for.end, label %for.body, !llvm.loop !15

for.end:                                          ; preds = %for.body
  %conv3 = sext i32 %conv2 to i64
  %call4 = tail call noalias ptr @g_malloc0(i64 noundef %conv3) #11
  %wide.trip.count25 = zext nneg i32 %len to i64
  br label %for.body8

for.body8:                                        ; preds = %for.end, %for.body8
  %indvars.iv22 = phi i64 [ 0, %for.end ], [ %indvars.iv.next23, %for.body8 ]
  %p.019 = phi ptr [ %call4, %for.end ], [ %add.ptr, %for.body8 ]
  %arrayidx10 = getelementptr ptr, ptr %array, i64 %indvars.iv22
  %3 = load ptr, ptr %arrayidx10, align 8
  %call11 = tail call i64 @strlen(ptr noundef nonnull dereferenceable(1) %3) #14
  %4 = trunc i64 %call11 to i32
  %conv13 = add i32 %4, 1
  tail call void @pstrcpy(ptr noundef %p.019, i32 noundef %conv13, ptr noundef nonnull %3) #12
  %idx.ext = sext i32 %conv13 to i64
  %add.ptr = getelementptr i8, ptr %p.019, i64 %idx.ext
  %indvars.iv.next23 = add nuw nsw i64 %indvars.iv22, 1
  %exitcond26.not = icmp eq i64 %indvars.iv.next23, %wide.trip.count25
  br i1 %exitcond26.not, label %for.end18, label %for.body8, !llvm.loop !16

for.end18:                                        ; preds = %for.body8, %for.end.thread
  %call431 = phi ptr [ %call429, %for.end.thread ], [ %call4, %for.body8 ]
  %total_len.0.lcssa30 = phi i32 [ 0, %for.end.thread ], [ %conv2, %for.body8 ]
  %call19 = tail call i32 @qemu_fdt_setprop(ptr noundef %fdt, ptr noundef %node_path, ptr noundef %prop, ptr noundef %call431, i32 noundef %total_len.0.lcssa30)
  tail call void @g_free(ptr noundef %call431) #12
  ret i32 %call19
}